; Function Attrs: mustprogress uwtable
define noundef float @_ZN3gmx8internal48findSmallestQuotientOfFunctionAndThirdDerivativeERKSt8functionIFddEERKSt4pairIffE(ptr noundef nonnull align 8 dereferenceable(32) %0, ptr nocapture noundef nonnull readonly align 4 dereferenceable(8) %1) local_unnamed_addr #0 {
  %3 = alloca double, align 8
  %4 = alloca double, align 8
  %5 = alloca double, align 8
  %6 = alloca double, align 8
  %7 = alloca double, align 8
  %8 = load <2 x float>, ptr %1, align 4
  %9 = fpext <2 x float> %8 to <2 x double>
  %10 = fadd <2 x double> %9, <double 0x3F58406003B2AE5A, double 0xBF58406003B2AE5A>
  %11 = extractelement <2 x double> %10, i64 0
  %12 = extractelement <2 x double> %10, i64 1
  %13 = fsub double %12, %11
  %14 = fdiv double %13, 5.000000e+02
  %15 = fcmp ugt double %11, %12
  br i1 %15, label %._crit_edge, label %.lr.ph

.lr.ph:                                           ; preds = %2
  %16 = getelementptr inbounds i8, ptr %0, i64 16
  %17 = getelementptr inbounds i8, ptr %0, i64 24
  br label %18

18:                                               ; preds = %.lr.ph, %_ZNKSt8functionIFddEEclEd.exit29
  %.041 = phi double [ %11, %.lr.ph ], [ %55, %_ZNKSt8functionIFddEEclEd.exit29 ]
  %.03440 = phi double [ 0x47EFFFFFE0000000, %.lr.ph ], [ %.sroa.speculated, %_ZNKSt8functionIFddEEclEd.exit29 ]
  %19 = fadd double %.041, 0xBF58406003B2AE5A
  call void @llvm.lifetime.start.p0(i64 8, ptr nonnull %7)
  store double %19, ptr %7, align 8
  %20 = load ptr, ptr %16, align 8
  %.not.i.i = icmp eq ptr %20, null
  br i1 %.not.i.i, label %21, label %_ZNKSt8functionIFddEEclEd.exit

21:                                               ; preds = %18
  call void @_ZSt25__throw_bad_function_callv() #17
  unreachable

_ZNKSt8functionIFddEEclEd.exit:                   ; preds = %18
  %22 = load ptr, ptr %17, align 8
  %23 = call noundef double %22(ptr noundef nonnull align 8 dereferenceable(16) %0, ptr noundef nonnull align 8 dereferenceable(8) %7)
  call void @llvm.lifetime.end.p0(i64 8, ptr nonnull %7)
  %24 = fadd double %.041, 0xBF48406003B2AE5A
  call void @llvm.lifetime.start.p0(i64 8, ptr nonnull %6)
  store double %24, ptr %6, align 8
  %25 = load ptr, ptr %16, align 8
  %.not.i.i22 = icmp eq ptr %25, null
  br i1 %.not.i.i22, label %26, label %_ZNKSt8functionIFddEEclEd.exit23

26:                                               ; preds = %_ZNKSt8functionIFddEEclEd.exit
  call void @_ZSt25__throw_bad_function_callv() #17
  unreachable

_ZNKSt8functionIFddEEclEd.exit23:                 ; preds = %_ZNKSt8functionIFddEEclEd.exit
  %27 = load ptr, ptr %17, align 8
  %28 = call noundef double %27(ptr noundef nonnull align 8 dereferenceable(16) %0, ptr noundef nonnull align 8 dereferenceable(8) %6)
  call void @llvm.lifetime.end.p0(i64 8, ptr nonnull %6)
  call void @llvm.lifetime.start.p0(i64 8, ptr nonnull %5)
  store double %.041, ptr %5, align 8
  %29 = load ptr, ptr %16, align 8
  %.not.i.i24 = icmp eq ptr %29, null
  br i1 %.not.i.i24, label %30, label %_ZNKSt8functionIFddEEclEd.exit25

30:                                               ; preds = %_ZNKSt8functionIFddEEclEd.exit23
  call void @_ZSt25__throw_bad_function_callv() #17
  unreachable

_ZNKSt8functionIFddEEclEd.exit25:                 ; preds = %_ZNKSt8functionIFddEEclEd.exit23
  %31 = load ptr, ptr %17, align 8
  %32 = call noundef double %31(ptr noundef nonnull align 8 dereferenceable(16) %0, ptr noundef nonnull align 8 dereferenceable(8) %5)
  call void @llvm.lifetime.end.p0(i64 8, ptr nonnull %5)
  %33 = fadd double %.041, 0x3F48406003B2AE5A
  call void @llvm.lifetime.start.p0(i64 8, ptr nonnull %4)
  store double %33, ptr %4, align 8
  %34 = load ptr, ptr %16, align 8
  %.not.i.i26 = icmp eq ptr %34, null
  br i1 %.not.i.i26, label %35, label %_ZNKSt8functionIFddEEclEd.exit27

35:                                               ; preds = %_ZNKSt8functionIFddEEclEd.exit25
  call void @_ZSt25__throw_bad_function_callv() #17
  unreachable

_ZNKSt8functionIFddEEclEd.exit27:                 ; preds = %_ZNKSt8functionIFddEEclEd.exit25
  %36 = load ptr, ptr %17, align 8
  %37 = call noundef double %36(ptr noundef nonnull align 8 dereferenceable(16) %0, ptr noundef nonnull align 8 dereferenceable(8) %4)
  call void @llvm.lifetime.end.p0(i64 8, ptr nonnull %4)
  %38 = fadd double %.041, 0x3F58406003B2AE5A
  call void @llvm.lifetime.start.p0(i64 8, ptr nonnull %3)
  store double %38, ptr %3, align 8
  %39 = load ptr, ptr %16, align 8
  %.not.i.i28 = icmp eq ptr %39, null
  br i1 %.not.i.i28, label %40, label %_ZNKSt8functionIFddEEclEd.exit29

40:                                               ; preds = %_ZNKSt8functionIFddEEclEd.exit27
  call void @_ZSt25__throw_bad_function_callv() #17
  unreachable

_ZNKSt8functionIFddEEclEd.exit29:                 ; preds = %_ZNKSt8functionIFddEEclEd.exit27
  %41 = load ptr, ptr %17, align 8
  %42 = call noundef double %41(ptr noundef nonnull align 8 dereferenceable(16) %0, ptr noundef nonnull align 8 dereferenceable(8) %3)
  call void @llvm.lifetime.end.p0(i64 8, ptr nonnull %3)
  %43 = call double @llvm.fmuladd.f64(double %37, double -2.000000e+00, double %42)
  %44 = call double @llvm.fmuladd.f64(double %28, double 2.000000e+00, double %43)
  %45 = fsub double %44, %23
  %46 = fdiv double %45, 0x3E0BDB8CDADBE118
  %47 = insertelement <2 x double> poison, double %32, i64 0
  %48 = insertelement <2 x double> %47, double %46, i64 1
  %49 = call <2 x double> @llvm.fabs.v2f64(<2 x double> %48)
  %50 = fcmp olt <2 x double> %49, <double 0x3C00000000000000, double 0x3C00000000000000>
  %51 = select <2 x i1> %50, <2 x double> <double 0x3C00000000000000, double 0x3C00000000000000>, <2 x double> %49
  %shift = shufflevector <2 x double> %51, <2 x double> poison, <2 x i32> <i32 1, i32 poison>
  %52 = fdiv <2 x double> %51, %shift
  %53 = extractelement <2 x double> %52, i64 0
  %54 = fcmp olt double %53, %.03440
  %.sroa.speculated = select i1 %54, double %53, double %.03440
  %55 = fadd double %14, %.041
  %56 = fcmp ugt double %55, %12
  br i1 %56, label %._crit_edge.loopexit, label %18, !llvm.loop !11

._crit_edge.loopexit:                             ; preds = %_ZNKSt8functionIFddEEclEd.exit29
  %57 = fptrunc double %.sroa.speculated to float
  br label %._crit_edge

._crit_edge:                                      ; preds = %._crit_edge.loopexit, %2
  %.034.lcssa = phi float [ 0x47EFFFFFE0000000, %2 ], [ %57, %._crit_edge.loopexit ]
  ret float %.034.lcssa
}